(dp0
S'last_data_path'
p1
S'D:/data/2015-08-10_10.59.00'
p2
sS'last_save_path'
p3
S'.'
p4
sS'last_import_path'
p5
S'G:\\develop\\build\\av-nui\\bin\\Debug\\dump\\tracking'
p6
sS'last_report_path'
p7
S'D:\\data\\report'
p8
s.